; ModuleID = '21/951.c'
source_filename = "21/951.c"
target datalayout = "e-m:e-p270:32:32-p271:32:32-p272:64:64-i64:64-f80:128-n8:16:32:64-S128"
target triple = "x86_64-pc-linux-gnu"

@.str = private unnamed_addr constant [3 x i8] c"%d\00", align 1
@.str.1 = private unnamed_addr constant [6 x i8] c"%d,%d\00", align 1

; Function Attrs: noinline nounwind uwtable
define dso_local i32 @main() #0 {
  %1 = alloca i32, align 4
  %2 = alloca i32, align 4
  %3 = alloca i32, align 4
  %4 = alloca i32, align 4
  %5 = alloca i32, align 4
  %6 = alloca i32, align 4
  %7 = alloca i32, align 4
  %8 = alloca float, align 4
  %9 = alloca [300 x i32], align 16
  store i32 0, i32* %1, align 4
  store i32 0, i32* %5, align 4
  store i32 0, i32* %6, align 4
  store i32 0, i32* %7, align 4
  %10 = call i32 (i8*, ...) @__isoc99_scanf(i8* getelementptr inbounds ([3 x i8], [3 x i8]* @.str, i64 0, i64 0), i32* %2)
  store i32 0, i32* %3, align 4
  br label %11

11:                                               ; preds = %26, %0
  %12 = load i32, i32* %3, align 4
  %13 = load i32, i32* %2, align 4
  %14 = icmp slt i32 %12, %13
  br i1 %14, label %15, label %29

15:                                               ; preds = %11
  %16 = load i32, i32* %3, align 4
  %17 = sext i32 %16 to i64
  %18 = getelementptr inbounds [300 x i32], [300 x i32]* %9, i64 0, i64 %17
  %19 = call i32 (i8*, ...) @__isoc99_scanf(i8* getelementptr inbounds ([3 x i8], [3 x i8]* @.str, i64 0, i64 0), i32* %18)
  %20 = load i32, i32* %3, align 4
  %21 = sext i32 %20 to i64
  %22 = getelementptr inbounds [300 x i32], [300 x i32]* %9, i64 0, i64 %21
  %23 = load i32, i32* %22, align 4
  %24 = load i32, i32* %5, align 4
  %25 = add i32 %24, %23
  store i32 %25, i32* %5, align 4
  br label %26

26:                                               ; preds = %15
  %27 = load i32, i32* %3, align 4
  %28 = add nsw i32 %27, 1
  store i32 %28, i32* %3, align 4
  br label %11

29:                                               ; preds = %11
  %30 = load i32, i32* %5, align 4
  %31 = sitofp i32 %30 to float
  %32 = load i32, i32* %2, align 4
  %33 = sitofp i32 %32 to float
  %34 = fdiv float %31, %33
  store float %34, float* %8, align 4
  store i32 0, i32* %4, align 4
  store i32 0, i32* %3, align 4
  br label %35

35:                                               ; preds = %86, %29
  %36 = load i32, i32* %3, align 4
  %37 = load i32, i32* %2, align 4
  %38 = icmp slt i32 %36, %37
  br i1 %38, label %39, label %89

39:                                               ; preds = %35
  %40 = load i32, i32* %3, align 4
  %41 = sext i32 %40 to i64
  %42 = getelementptr inbounds [300 x i32], [300 x i32]* %9, i64 0, i64 %41
  %43 = load i32, i32* %42, align 4
  %44 = uitofp i32 %43 to float
  %45 = load float, float* %8, align 4
  %46 = fsub float %44, %45
  %47 = fpext float %46 to double
  %48 = call double @llvm.fabs.f64(double %47)
  %49 = load i32, i32* %4, align 4
  %50 = sitofp i32 %49 to double
  %51 = fcmp oge double %48, %50
  br i1 %51, label %52, label %85

52:                                               ; preds = %39
  %53 = load i32, i32* %3, align 4
  %54 = sext i32 %53 to i64
  %55 = getelementptr inbounds [300 x i32], [300 x i32]* %9, i64 0, i64 %54
  %56 = load i32, i32* %55, align 4
  %57 = uitofp i32 %56 to float
  %58 = load float, float* %8, align 4
  %59 = fcmp olt float %57, %58
  br i1 %59, label %60, label %72

60:                                               ; preds = %52
  %61 = load i32, i32* %3, align 4
  %62 = sext i32 %61 to i64
  %63 = getelementptr inbounds [300 x i32], [300 x i32]* %9, i64 0, i64 %62
  %64 = load i32, i32* %63, align 4
  %65 = uitofp i32 %64 to float
  %66 = load float, float* %8, align 4
  %67 = fsub float %65, %66
  %68 = fpext float %67 to double
  %69 = call double @llvm.fabs.f64(double %68)
  %70 = fptosi double %69 to i32
  store i32 %70, i32* %4, align 4
  %71 = load i32, i32* %3, align 4
  store i32 %71, i32* %6, align 4
  br label %84

72:                                               ; preds = %52
  %73 = load i32, i32* %3, align 4
  %74 = sext i32 %73 to i64
  %75 = getelementptr inbounds [300 x i32], [300 x i32]* %9, i64 0, i64 %74
  %76 = load i32, i32* %75, align 4
  %77 = uitofp i32 %76 to float
  %78 = load float, float* %8, align 4
  %79 = fsub float %77, %78
  %80 = fpext float %79 to double
  %81 = call double @llvm.fabs.f64(double %80)
  %82 = fptosi double %81 to i32
  store i32 %82, i32* %4, align 4
  %83 = load i32, i32* %3, align 4
  store i32 %83, i32* %7, align 4
  br label %84

84:                                               ; preds = %72, %60
  br label %85

85:                                               ; preds = %84, %39
  br label %86

86:                                               ; preds = %85
  %87 = load i32, i32* %3, align 4
  %88 = add nsw i32 %87, 1
  store i32 %88, i32* %3, align 4
  br label %35

89:                                               ; preds = %35
  %90 = load i32, i32* %7, align 4
  %91 = sext i32 %90 to i64
  %92 = getelementptr inbounds [300 x i32], [300 x i32]* %9, i64 0, i64 %91
  %93 = load i32, i32* %92, align 4
  %94 = uitofp i32 %93 to float
  %95 = load float, float* %8, align 4
  %96 = fsub float %94, %95
  %97 = load float, float* %8, align 4
  %98 = load i32, i32* %6, align 4
  %99 = sext i32 %98 to i64
  %100 = getelementptr inbounds [300 x i32], [300 x i32]* %9, i64 0, i64 %99
  %101 = load i32, i32* %100, align 4
  %102 = uitofp i32 %101 to float
  %103 = fsub float %97, %102
  %104 = fcmp ogt float %96, %103
  br i1 %104, label %105, label %111

105:                                              ; preds = %89
  %106 = load i32, i32* %7, align 4
  %107 = sext i32 %106 to i64
  %108 = getelementptr inbounds [300 x i32], [300 x i32]* %9, i64 0, i64 %107
  %109 = load i32, i32* %108, align 4
  %110 = call i32 (i8*, ...) @printf(i8* getelementptr inbounds ([3 x i8], [3 x i8]* @.str, i64 0, i64 0), i32 %109)
  br label %144

111:                                              ; preds = %89
  %112 = load i32, i32* %7, align 4
  %113 = sext i32 %112 to i64
  %114 = getelementptr inbounds [300 x i32], [300 x i32]* %9, i64 0, i64 %113
  %115 = load i32, i32* %114, align 4
  %116 = uitofp i32 %115 to float
  %117 = load float, float* %8, align 4
  %118 = fsub float %116, %117
  %119 = load float, float* %8, align 4
  %120 = load i32, i32* %6, align 4
  %121 = sext i32 %120 to i64
  %122 = getelementptr inbounds [300 x i32], [300 x i32]* %9, i64 0, i64 %121
  %123 = load i32, i32* %122, align 4
  %124 = uitofp i32 %123 to float
  %125 = fsub float %119, %124
  %126 = fcmp olt float %118, %125
  br i1 %126, label %127, label %133

127:                                              ; preds = %111
  %128 = load i32, i32* %6, align 4
  %129 = sext i32 %128 to i64
  %130 = getelementptr inbounds [300 x i32], [300 x i32]* %9, i64 0, i64 %129
  %131 = load i32, i32* %130, align 4
  %132 = call i32 (i8*, ...) @printf(i8* getelementptr inbounds ([3 x i8], [3 x i8]* @.str, i64 0, i64 0), i32 %131)
  br label %143

133:                                              ; preds = %111
  %134 = load i32, i32* %6, align 4
  %135 = sext i32 %134 to i64
  %136 = getelementptr inbounds [300 x i32], [300 x i32]* %9, i64 0, i64 %135
  %137 = load i32, i32* %136, align 4
  %138 = load i32, i32* %7, align 4
  %139 = sext i32 %138 to i64
  %140 = getelementptr inbounds [300 x i32], [300 x i32]* %9, i64 0, i64 %139
  %141 = load i32, i32* %140, align 4
  %142 = call i32 (i8*, ...) @printf(i8* getelementptr inbounds ([6 x i8], [6 x i8]* @.str.1, i64 0, i64 0), i32 %137, i32 %141)
  br label %143

143:                                              ; preds = %133, %127
  br label %144

144:                                              ; preds = %143, %105
  ret i32 0
}

declare dso_local i32 @__isoc99_scanf(i8*, ...) #1

; Function Attrs: nounwind readnone speculatable willreturn
declare double @llvm.fabs.f64(double) #2

declare dso_local i32 @printf(i8*, ...) #1


!llvm.module.flags = !{!0}
!llvm.ident = !{!1}

!0 = !{i32 1, !"wchar_size", i32 4}
!1 = !{!"clang version 10.0.0-4ubuntu1 "}
