; ModuleID = 'source-C-CXX/20/951.c'
source_filename = "source-C-CXX/20/951.c"
target datalayout = "e-m:e-p270:32:32-p271:32:32-p272:64:64-i64:64-f80:128-n8:16:32:64-S128"
target triple = "x86_64-pc-linux-gnu"

@.str = private unnamed_addr constant [3 x i8] c"%d\00", align 1
@.str.1 = private unnamed_addr constant [6 x i8] c"%d,%d\00", align 1

; Function Attrs: nofree nounwind sspstrong uwtable
define dso_local i32 @main() local_unnamed_addr #0 {
  %1 = alloca i32, align 4
  %2 = alloca [300 x i32], align 16
  %3 = bitcast i32* %1 to i8*
  call void @llvm.lifetime.start.p0i8(i64 4, i8* nonnull %3) #4
  %4 = bitcast [300 x i32]* %2 to i8*
  call void @llvm.lifetime.start.p0i8(i64 1200, i8* nonnull %4) #4
  %5 = call i32 (i8*, ...) @__isoc99_scanf(i8* getelementptr inbounds ([3 x i8], [3 x i8]* @.str, i64 0, i64 0), i32* nonnull %1)
  %6 = load i32, i32* %1, align 4, !tbaa !5
  %7 = icmp sgt i32 %6, 0
  br i1 %7, label %11, label %8

8:                                                ; preds = %0
  %9 = sitofp i32 %6 to float
  %10 = fdiv float 0.000000e+00, %9
  br label %55

11:                                               ; preds = %0, %11
  %12 = phi i64 [ %18, %11 ], [ 0, %0 ]
  %13 = phi i32 [ %17, %11 ], [ 0, %0 ]
  %14 = getelementptr inbounds [300 x i32], [300 x i32]* %2, i64 0, i64 %12
  %15 = call i32 (i8*, ...) @__isoc99_scanf(i8* getelementptr inbounds ([3 x i8], [3 x i8]* @.str, i64 0, i64 0), i32* nonnull %14)
  %16 = load i32, i32* %14, align 4, !tbaa !5
  %17 = add i32 %16, %13
  %18 = add nuw nsw i64 %12, 1
  %19 = load i32, i32* %1, align 4, !tbaa !5
  %20 = sext i32 %19 to i64
  %21 = icmp slt i64 %18, %20
  br i1 %21, label %11, label %22, !llvm.loop !9

22:                                               ; preds = %11
  %23 = sitofp i32 %17 to float
  %24 = sitofp i32 %19 to float
  %25 = fdiv float %23, %24
  %26 = icmp sgt i32 %19, 0
  br i1 %26, label %27, label %55

27:                                               ; preds = %22
  %28 = zext i32 %19 to i64
  br label %29

29:                                               ; preds = %27, %29
  %30 = phi i64 [ 0, %27 ], [ %50, %29 ]
  %31 = phi i32 [ 0, %27 ], [ %49, %29 ]
  %32 = phi i32 [ 0, %27 ], [ %47, %29 ]
  %33 = phi i32 [ 0, %27 ], [ %46, %29 ]
  %34 = getelementptr inbounds [300 x i32], [300 x i32]* %2, i64 0, i64 %30
  %35 = load i32, i32* %34, align 4, !tbaa !5
  %36 = uitofp i32 %35 to float
  %37 = fsub float %36, %25
  %38 = call float @llvm.fabs.f32(float %37)
  %39 = fpext float %38 to double
  %40 = sitofp i32 %33 to double
  %41 = fcmp ult double %39, %40
  %42 = fcmp ogt float %25, %36
  %43 = fptosi float %38 to i32
  %44 = trunc i64 %30 to i32
  %45 = select i1 %42, i32 %44, i32 %32
  %46 = select i1 %41, i32 %33, i32 %43
  %47 = select i1 %41, i32 %32, i32 %45
  %48 = select i1 %41, i1 true, i1 %42
  %49 = select i1 %48, i32 %31, i32 %44
  %50 = add nuw nsw i64 %30, 1
  %51 = icmp eq i64 %50, %28
  br i1 %51, label %52, label %29, !llvm.loop !11

52:                                               ; preds = %29
  %53 = sext i32 %49 to i64
  %54 = sext i32 %47 to i64
  br label %55

55:                                               ; preds = %52, %8, %22
  %56 = phi float [ %25, %22 ], [ %10, %8 ], [ %25, %52 ]
  %57 = phi i64 [ 0, %22 ], [ 0, %8 ], [ %54, %52 ]
  %58 = phi i64 [ 0, %22 ], [ 0, %8 ], [ %53, %52 ]
  %59 = getelementptr inbounds [300 x i32], [300 x i32]* %2, i64 0, i64 %58
  %60 = load i32, i32* %59, align 4, !tbaa !5
  %61 = uitofp i32 %60 to float
  %62 = fsub float %61, %56
  %63 = getelementptr inbounds [300 x i32], [300 x i32]* %2, i64 0, i64 %57
  %64 = load i32, i32* %63, align 4, !tbaa !5
  %65 = uitofp i32 %64 to float
  %66 = fsub float %56, %65
  %67 = fcmp ogt float %62, %66
  br i1 %67, label %68, label %70

68:                                               ; preds = %55
  %69 = call i32 (i8*, ...) @printf(i8* nonnull dereferenceable(1) getelementptr inbounds ([3 x i8], [3 x i8]* @.str, i64 0, i64 0), i32 %60)
  br label %76

70:                                               ; preds = %55
  %71 = fcmp olt float %62, %66
  br i1 %71, label %72, label %74

72:                                               ; preds = %70
  %73 = call i32 (i8*, ...) @printf(i8* nonnull dereferenceable(1) getelementptr inbounds ([3 x i8], [3 x i8]* @.str, i64 0, i64 0), i32 %64)
  br label %76

74:                                               ; preds = %70
  %75 = call i32 (i8*, ...) @printf(i8* nonnull dereferenceable(1) getelementptr inbounds ([6 x i8], [6 x i8]* @.str.1, i64 0, i64 0), i32 %64, i32 %60)
  br label %76

76:                                               ; preds = %72, %74, %68
  call void @llvm.lifetime.end.p0i8(i64 1200, i8* nonnull %4) #4
  call void @llvm.lifetime.end.p0i8(i64 4, i8* nonnull %3) #4
  ret i32 0
}

; Function Attrs: argmemonly mustprogress nofree nosync nounwind willreturn
declare void @llvm.lifetime.start.p0i8(i64 immarg, i8* nocapture) #1

; Function Attrs: nofree nounwind
declare noundef i32 @__isoc99_scanf(i8* nocapture noundef readonly, ...) local_unnamed_addr #2

; Function Attrs: nofree nounwind
declare noundef i32 @printf(i8* nocapture noundef readonly, ...) local_unnamed_addr #2

; Function Attrs: argmemonly mustprogress nofree nosync nounwind willreturn
declare void @llvm.lifetime.end.p0i8(i64 immarg, i8* nocapture) #1

; Function Attrs: nofree nosync nounwind readnone speculatable willreturn
declare float @llvm.fabs.f32(float) #3


!llvm.module.flags = !{!0, !1, !2, !3}
!llvm.ident = !{!4}

!0 = !{i32 1, !"wchar_size", i32 4}
!1 = !{i32 7, !"PIC Level", i32 2}
!2 = !{i32 7, !"PIE Level", i32 2}
!3 = !{i32 7, !"uwtable", i32 1}
!4 = !{!"clang version 13.0.0"}
!5 = !{!6, !6, i64 0}
!6 = !{!"int", !7, i64 0}
!7 = !{!"omnipotent char", !8, i64 0}
!8 = !{!"Simple C/C++ TBAA"}
!9 = distinct !{!9, !10}
!10 = !{!"llvm.loop.mustprogress"}
!11 = distinct !{!11, !10}
